target datalayout = "e-m:e-p270:32:32-p271:32:32-p272:64:64-i64:64-i128:128-f80:128-n8:16:32:64-S128"
target triple = "x86_64-pc-linux-gnu"

%struct.AVFilterPad = type { ptr, i32, i32, %union.anon, ptr, ptr, ptr }
%union.anon = type { ptr }
%struct.AVFilterContext = type { ptr, ptr, ptr, ptr, ptr, i32, ptr, ptr, i32, ptr, ptr, i32, i32, ptr, ptr, ptr, ptr, i32, ptr, i32, i32 }
%struct.AudioFIRContext = type { ptr, float, float, float, i32, float, float, float, i32, i32, float, i32, i32, i32, %struct.AVRational, i32, i32, i32, i32, i32, i32, i32, i32, [32 x i32], [32 x i32], [32 x i32], [32 x i32], [32 x i32], i32, i32, i32, ptr, ptr, [32 x [1024 x %struct.AudioFIRSegment]], ptr, [2 x ptr], [2 x ptr], [32 x ptr], [32 x ptr], i32, i32, i64, %struct.AudioFIRDSPContext, ptr }
%struct.AVRational = type { i32, i32 }
%struct.AudioFIRSegment = type { i32, i32, i32, i32, i32, i32, i32, ptr, ptr, ptr, ptr, ptr, ptr, ptr, ptr, ptr, ptr, ptr, ptr, ptr, ptr, ptr, ptr, ptr }
%struct.AudioFIRDSPContext = type { ptr, ptr }

@.str.71 = private unnamed_addr constant [5 x i8] c"main\00", align 1
@.str.72 = private unnamed_addr constant [5 x i8] c"ir%d\00", align 1
@ff_log2_tab = external constant [256 x i8], align 16

; Function Attrs: alwaysinline nounwind willreturn memory(none) uwtable
define internal i32 @ff_log2_c(i32 noundef %0) #6 {
  %2 = alloca i32, align 4
  %3 = alloca i32, align 4
  store i32 %0, ptr %2, align 4, !tbaa !40
  call void @llvm.lifetime.start.p0(i64 4, ptr %3) #10
  store i32 0, ptr %3, align 4, !tbaa !40
  %4 = load i32, ptr %2, align 4, !tbaa !40
  %5 = and i32 %4, -65536
  %6 = icmp ne i32 %5, 0
  br i1 %6, label %7, label %12

7:                                                ; preds = %1
  %8 = load i32, ptr %2, align 4, !tbaa !40
  %9 = lshr i32 %8, 16
  store i32 %9, ptr %2, align 4, !tbaa !40
  %10 = load i32, ptr %3, align 4, !tbaa !40
  %11 = add nsw i32 %10, 16
  store i32 %11, ptr %3, align 4, !tbaa !40
  br label %12

12:                                               ; preds = %7, %1
  %13 = load i32, ptr %2, align 4, !tbaa !40
  %14 = and i32 %13, 65280
  %15 = icmp ne i32 %14, 0
  br i1 %15, label %16, label %21

16:                                               ; preds = %12
  %17 = load i32, ptr %2, align 4, !tbaa !40
  %18 = lshr i32 %17, 8
  store i32 %18, ptr %2, align 4, !tbaa !40
  %19 = load i32, ptr %3, align 4, !tbaa !40
  %20 = add nsw i32 %19, 8
  store i32 %20, ptr %3, align 4, !tbaa !40
  br label %21

21:                                               ; preds = %16, %12
  %22 = load i32, ptr %2, align 4, !tbaa !40
  %23 = zext i32 %22 to i64
  %24 = getelementptr inbounds nuw [256 x i8], ptr @ff_log2_tab, i64 0, i64 %23
  %25 = load i8, ptr %24, align 1, !tbaa !41
  %26 = zext i8 %25 to i32
  %27 = load i32, ptr %3, align 4, !tbaa !40
  %28 = add nsw i32 %27, %26
  store i32 %28, ptr %3, align 4, !tbaa !40
  %29 = load i32, ptr %3, align 4, !tbaa !40
  call void @llvm.lifetime.end.p0(i64 4, ptr %3) #10
  ret i32 %29
}

; Function Attrs: nounwind uwtable
define internal void @ff_afir_init(ptr noundef %0) #1 {
  %2 = alloca ptr, align 8
  store ptr %0, ptr %2, align 8, !tbaa !105
  %3 = load ptr, ptr %2, align 8, !tbaa !105
  %4 = getelementptr inbounds nuw %struct.AudioFIRDSPContext, ptr %3, i32 0, i32 0
  store ptr @fcmul_add_c, ptr %4, align 8, !tbaa !107
  %5 = load ptr, ptr %2, align 8, !tbaa !105
  %6 = getelementptr inbounds nuw %struct.AudioFIRDSPContext, ptr %5, i32 0, i32 1
  store ptr @dcmul_add_c, ptr %6, align 8, !tbaa !108
  ret void
}

; Function Attrs: cold nounwind optsize uwtable
define internal i32 @init(ptr noundef %0) #0 {
  %2 = alloca i32, align 4
  %3 = alloca ptr, align 8
  %4 = alloca ptr, align 8
  %5 = alloca %struct.AVFilterPad, align 8
  %6 = alloca i32, align 4
  %7 = alloca %struct.AVFilterPad, align 8
  %8 = alloca i32, align 4
  %9 = alloca i32, align 4
  %10 = alloca %struct.AVFilterPad, align 8
  store ptr %0, ptr %3, align 8, !tbaa !4
  call void @llvm.lifetime.start.p0(i64 8, ptr %4) #10
  %11 = load ptr, ptr %3, align 8, !tbaa !4
  %12 = getelementptr inbounds nuw %struct.AVFilterContext, ptr %11, i32 0, i32 9
  %13 = load ptr, ptr %12, align 8, !tbaa !9
  store ptr %13, ptr %4, align 8, !tbaa !22
  call void @llvm.lifetime.start.p0(i64 48, ptr %5) #10
  call void @llvm.lifetime.start.p0(i64 4, ptr %6) #10
  %14 = load ptr, ptr %4, align 8, !tbaa !22
  %15 = getelementptr inbounds nuw %struct.AudioFIRContext, ptr %14, i32 0, i32 18
  %16 = load i32, ptr %15, align 8, !tbaa !24
  %17 = sub nsw i32 %16, 1
  %18 = load ptr, ptr %4, align 8, !tbaa !22
  %19 = getelementptr inbounds nuw %struct.AudioFIRContext, ptr %18, i32 0, i32 20
  %20 = load i32, ptr %19, align 8, !tbaa !33
  %21 = icmp sgt i32 %17, %20
  br i1 %21, label %22, label %26

22:                                               ; preds = %1
  %23 = load ptr, ptr %4, align 8, !tbaa !22
  %24 = getelementptr inbounds nuw %struct.AudioFIRContext, ptr %23, i32 0, i32 20
  %25 = load i32, ptr %24, align 8, !tbaa !33
  br label %31

26:                                               ; preds = %1
  %27 = load ptr, ptr %4, align 8, !tbaa !22
  %28 = getelementptr inbounds nuw %struct.AudioFIRContext, ptr %27, i32 0, i32 18
  %29 = load i32, ptr %28, align 8, !tbaa !24
  %30 = sub nsw i32 %29, 1
  br label %31

31:                                               ; preds = %26, %22
  %32 = phi i32 [ %25, %22 ], [ %30, %26 ]
  %33 = load ptr, ptr %4, align 8, !tbaa !22
  %34 = getelementptr inbounds nuw %struct.AudioFIRContext, ptr %33, i32 0, i32 19
  store i32 %32, ptr %34, align 4, !tbaa !34
  call void @llvm.memset.p0.i64(ptr align 8 %7, i8 0, i64 48, i1 false)
  %35 = getelementptr inbounds nuw %struct.AVFilterPad, ptr %7, i32 0, i32 0
  store ptr @.str.71, ptr %35, align 8, !tbaa !35
  %36 = getelementptr inbounds nuw %struct.AVFilterPad, ptr %7, i32 0, i32 1
  store i32 1, ptr %36, align 8, !tbaa !37
  call void @llvm.memcpy.p0.p0.i64(ptr align 8 %5, ptr align 8 %7, i64 48, i1 false), !tbaa.struct !38
  %37 = load ptr, ptr %3, align 8, !tbaa !4
  %38 = call i32 @ff_append_inpad(ptr noundef %37, ptr noundef %5)
  store i32 %38, ptr %6, align 4, !tbaa !40
  %39 = load i32, ptr %6, align 4, !tbaa !40
  %40 = icmp slt i32 %39, 0
  br i1 %40, label %41, label %43

41:                                               ; preds = %31
  %42 = load i32, ptr %6, align 4, !tbaa !40
  store i32 %42, ptr %2, align 4
  store i32 1, ptr %8, align 4
  br label %99

43:                                               ; preds = %31
  call void @llvm.lifetime.start.p0(i64 4, ptr %9) #10
  store i32 0, ptr %9, align 4, !tbaa !40
  br label %44

44:                                               ; preds = %68, %43
  %45 = load i32, ptr %9, align 4, !tbaa !40
  %46 = load ptr, ptr %4, align 8, !tbaa !22
  %47 = getelementptr inbounds nuw %struct.AudioFIRContext, ptr %46, i32 0, i32 18
  %48 = load i32, ptr %47, align 8, !tbaa !24
  %49 = icmp slt i32 %45, %48
  br i1 %49, label %51, label %50

50:                                               ; preds = %44
  store i32 2, ptr %8, align 4
  br label %71

51:                                               ; preds = %44
  call void @llvm.memset.p0.i64(ptr align 8 %10, i8 0, i64 48, i1 false)
  %52 = getelementptr inbounds nuw %struct.AVFilterPad, ptr %10, i32 0, i32 0
  %53 = load i32, ptr %9, align 4, !tbaa !40
  %54 = call ptr (ptr, ...) @av_asprintf(ptr noundef @.str.72, i32 noundef %53)
  store ptr %54, ptr %52, align 8, !tbaa !35
  %55 = getelementptr inbounds nuw %struct.AVFilterPad, ptr %10, i32 0, i32 1
  store i32 1, ptr %55, align 8, !tbaa !37
  call void @llvm.memcpy.p0.p0.i64(ptr align 8 %5, ptr align 8 %10, i64 48, i1 false), !tbaa.struct !38
  %56 = getelementptr inbounds nuw %struct.AVFilterPad, ptr %5, i32 0, i32 0
  %57 = load ptr, ptr %56, align 8, !tbaa !35
  %58 = icmp ne ptr %57, null
  br i1 %58, label %60, label %59

59:                                               ; preds = %51
  store i32 -12, ptr %2, align 4
  store i32 1, ptr %8, align 4
  br label %71

60:                                               ; preds = %51
  %61 = load ptr, ptr %3, align 8, !tbaa !4
  %62 = call i32 @ff_append_inpad_free_name(ptr noundef %61, ptr noundef %5)
  store i32 %62, ptr %6, align 4, !tbaa !40
  %63 = load i32, ptr %6, align 4, !tbaa !40
  %64 = icmp slt i32 %63, 0
  br i1 %64, label %65, label %67

65:                                               ; preds = %60
  %66 = load i32, ptr %6, align 4, !tbaa !40
  store i32 %66, ptr %2, align 4
  store i32 1, ptr %8, align 4
  br label %71

67:                                               ; preds = %60
  br label %68

68:                                               ; preds = %67
  %69 = load i32, ptr %9, align 4, !tbaa !40
  %70 = add nsw i32 %69, 1
  store i32 %70, ptr %9, align 4, !tbaa !40
  br label %44, !llvm.loop !43

71:                                               ; preds = %65, %59, %50
  call void @llvm.lifetime.end.p0(i64 4, ptr %9) #10
  %72 = load i32, ptr %8, align 4
  switch i32 %72, label %99 [
    i32 2, label %73
  ]

73:                                               ; preds = %71
  %74 = call ptr @avpriv_float_dsp_alloc(i32 noundef 0)
  %75 = load ptr, ptr %4, align 8, !tbaa !22
  %76 = getelementptr inbounds nuw %struct.AudioFIRContext, ptr %75, i32 0, i32 43
  store ptr %74, ptr %76, align 8, !tbaa !45
  %77 = load ptr, ptr %4, align 8, !tbaa !22
  %78 = getelementptr inbounds nuw %struct.AudioFIRContext, ptr %77, i32 0, i32 43
  %79 = load ptr, ptr %78, align 8, !tbaa !45
  %80 = icmp ne ptr %79, null
  br i1 %80, label %82, label %81

81:                                               ; preds = %73
  store i32 -12, ptr %2, align 4
  store i32 1, ptr %8, align 4
  br label %99

82:                                               ; preds = %73
  %83 = load ptr, ptr %4, align 8, !tbaa !22
  %84 = getelementptr inbounds nuw %struct.AudioFIRContext, ptr %83, i32 0, i32 42
  call void @ff_afir_init(ptr noundef %84)
  %85 = load ptr, ptr %4, align 8, !tbaa !22
  %86 = getelementptr inbounds nuw %struct.AudioFIRContext, ptr %85, i32 0, i32 16
  %87 = load i32, ptr %86, align 8, !tbaa !46
  %88 = call i32 @ff_log2_c(i32 noundef %87) #11
  %89 = shl i32 1, %88
  %90 = load ptr, ptr %4, align 8, !tbaa !22
  %91 = getelementptr inbounds nuw %struct.AudioFIRContext, ptr %90, i32 0, i32 39
  store i32 %89, ptr %91, align 8, !tbaa !47
  %92 = load ptr, ptr %4, align 8, !tbaa !22
  %93 = getelementptr inbounds nuw %struct.AudioFIRContext, ptr %92, i32 0, i32 17
  %94 = load i32, ptr %93, align 4, !tbaa !48
  %95 = call i32 @ff_log2_c(i32 noundef %94) #11
  %96 = shl i32 1, %95
  %97 = load ptr, ptr %4, align 8, !tbaa !22
  %98 = getelementptr inbounds nuw %struct.AudioFIRContext, ptr %97, i32 0, i32 40
  store i32 %96, ptr %98, align 4, !tbaa !49
  store i32 0, ptr %2, align 4
  store i32 1, ptr %8, align 4
  br label %99

99:                                               ; preds = %82, %81, %71, %41
  call void @llvm.lifetime.end.p0(i64 4, ptr %6) #10
  call void @llvm.lifetime.end.p0(i64 48, ptr %5) #10
  call void @llvm.lifetime.end.p0(i64 8, ptr %4) #10
  %100 = load i32, ptr %2, align 4
  ret i32 %100
}