; Function Attrs: cold nounwind optsize uwtable
define internal range(i32 -2147483648, 1) i32 @init(ptr noundef %0) #0 {
  %2 = alloca %struct.AVFilterPad, align 8
  %3 = getelementptr inbounds nuw i8, ptr %0, i64 72
  %4 = load ptr, ptr %3, align 8, !tbaa !4
  call void @llvm.lifetime.start.p0(i64 48, ptr nonnull %2) #10
  %5 = getelementptr inbounds nuw i8, ptr %4, i64 80
  %6 = load i32, ptr %5, align 8, !tbaa !20
  %7 = add nsw i32 %6, -1
  %8 = getelementptr inbounds nuw i8, ptr %4, i64 88
  %9 = load i32, ptr %8, align 8, !tbaa !29
  %. = tail call i32 @llvm.smin.i32(i32 %7, i32 %9)
  %10 = getelementptr inbounds nuw i8, ptr %4, i64 84
  store i32 %., ptr %10, align 4, !tbaa !30
  %.sroa.46.0..sroa_idx = getelementptr inbounds nuw i8, ptr %2, i64 12
  call void @llvm.memset.p0.i64(ptr noundef nonnull align 4 dereferenceable(36) %.sroa.46.0..sroa_idx, i8 0, i64 36, i1 false)
  store ptr @.str.71, ptr %2, align 8, !tbaa !31
  %.sroa.35.0..sroa_idx = getelementptr inbounds nuw i8, ptr %2, i64 8
  store i32 1, ptr %.sroa.35.0..sroa_idx, align 8, !tbaa !32
  %11 = call i32 @ff_append_inpad(ptr noundef %0, ptr noundef nonnull %2) #10
  %12 = icmp slt i32 %11, 0
  br i1 %12, label %.thread, label %.preheader

.preheader:                                       ; preds = %1
  %13 = load i32, ptr %5, align 8, !tbaa !20
  %.not3342 = icmp sgt i32 %13, 0
  br i1 %.not3342, label %.lr.ph, label %._crit_edge

14:                                               ; preds = %18
  %15 = add nuw nsw i32 %.043, 1
  %16 = load i32, ptr %5, align 8, !tbaa !20
  %.not33 = icmp slt i32 %15, %16
  br i1 %.not33, label %.lr.ph, label %._crit_edge, !llvm.loop !33

.lr.ph:                                           ; preds = %.preheader, %14
  %.043 = phi i32 [ %15, %14 ], [ 0, %.preheader ]
  %17 = call ptr (ptr, ...) @av_asprintf(ptr noundef nonnull @.str.72, i32 noundef %.043) #10
  store ptr %17, ptr %2, align 8, !tbaa !31
  store i32 1, ptr %.sroa.35.0..sroa_idx, align 8, !tbaa !32
  call void @llvm.memset.p0.i64(ptr noundef nonnull align 4 dereferenceable(36) %.sroa.46.0..sroa_idx, i8 0, i64 36, i1 false)
  %.not = icmp eq ptr %17, null
  br i1 %.not, label %.thread, label %18

18:                                               ; preds = %.lr.ph
  %19 = call i32 @ff_append_inpad_free_name(ptr noundef %0, ptr noundef nonnull %2) #10
  %20 = icmp slt i32 %19, 0
  br i1 %20, label %.thread, label %14

._crit_edge:                                      ; preds = %14, %.preheader
  %21 = call ptr @avpriv_float_dsp_alloc(i32 noundef 0) #10
  %22 = getelementptr inbounds nuw i8, ptr %4, i64 5506376
  store ptr %21, ptr %22, align 8, !tbaa !35
  %.not34 = icmp eq ptr %21, null
  br i1 %.not34, label %.thread, label %23

23:                                               ; preds = %._crit_edge
  %24 = getelementptr inbounds nuw i8, ptr %4, i64 5506360
  store ptr @fcmul_add_c, ptr %24, align 8, !tbaa !36
  %25 = getelementptr inbounds nuw i8, ptr %4, i64 5506368
  store ptr @dcmul_add_c, ptr %25, align 8, !tbaa !37
  %26 = getelementptr inbounds nuw i8, ptr %4, i64 72
  %27 = load i32, ptr %26, align 8, !tbaa !38
  %.not.i = icmp ult i32 %27, 65536
  %28 = lshr i32 %27, 16
  %spec.select.i = select i1 %.not.i, i32 %27, i32 %28
  %spec.select12.i = select i1 %.not.i, i32 0, i32 16
  %.not11.i = icmp samesign ult i32 %spec.select.i, 256
  %29 = lshr i32 %spec.select.i, 8
  %30 = or disjoint i32 %spec.select12.i, 8
  %.110.i = select i1 %.not11.i, i32 %spec.select.i, i32 %29
  %.1.i = select i1 %.not11.i, i32 %spec.select12.i, i32 %30
  %31 = zext nneg i32 %.110.i to i64
  %32 = getelementptr inbounds nuw [256 x i8], ptr @ff_log2_tab, i64 0, i64 %31
  %33 = load i8, ptr %32, align 1, !tbaa !39
  %34 = zext i8 %33 to i32
  %35 = add nuw nsw i32 %.1.i, %34
  %36 = shl nuw i32 1, %35
  %37 = getelementptr inbounds nuw i8, ptr %4, i64 5506344
  store i32 %36, ptr %37, align 8, !tbaa !40
  %38 = getelementptr inbounds nuw i8, ptr %4, i64 76
  %39 = load i32, ptr %38, align 4, !tbaa !41
  %.not.i35 = icmp ult i32 %39, 65536
  %40 = lshr i32 %39, 16
  %spec.select.i36 = select i1 %.not.i35, i32 %39, i32 %40
  %spec.select12.i37 = select i1 %.not.i35, i32 0, i32 16
  %.not11.i38 = icmp samesign ult i32 %spec.select.i36, 256
  %41 = lshr i32 %spec.select.i36, 8
  %42 = or disjoint i32 %spec.select12.i37, 8
  %.110.i39 = select i1 %.not11.i38, i32 %spec.select.i36, i32 %41
  %.1.i40 = select i1 %.not11.i38, i32 %spec.select12.i37, i32 %42
  %43 = zext nneg i32 %.110.i39 to i64
  %44 = getelementptr inbounds nuw [256 x i8], ptr @ff_log2_tab, i64 0, i64 %43
  %45 = load i8, ptr %44, align 1, !tbaa !39
  %46 = zext i8 %45 to i32
  %47 = add nuw nsw i32 %.1.i40, %46
  %48 = shl nuw i32 1, %47
  %49 = getelementptr inbounds nuw i8, ptr %4, i64 5506348
  store i32 %48, ptr %49, align 4, !tbaa !42
  br label %.thread

.thread:                                          ; preds = %.lr.ph, %18, %._crit_edge, %1, %23
  %.028 = phi i32 [ 0, %23 ], [ %11, %1 ], [ -12, %._crit_edge ], [ -12, %.lr.ph ], [ %19, %18 ]
  call void @llvm.lifetime.end.p0(i64 48, ptr nonnull %2) #10
  ret i32 %.028
}